target datalayout = "e-m:e-p270:32:32-p271:32:32-p272:64:64-i64:64-i128:128-f80:128-n8:16:32:64-S128"
target triple = "x86_64-pc-linux-gnu"

%struct.printTableOpt = type { i32, i16, i32, i32, i16, i16, i32, i8, i8, i8, i8, i64, ptr, %struct.separator, %struct.separator, [2 x i8], i8, ptr, i32, i32, i32, i32, i32, i32 }
%struct.separator = type { ptr, i8 }
%struct.printTableContent = type { ptr, ptr, i32, i32, ptr, ptr, ptr, ptr, i64, ptr, ptr, ptr, ptr, ptr }

@cancel_pressed = dso_local global i32 0, align 4

; Function Attrs: nounwind uwtable
define internal void @print_csv_text(ptr noundef %0, ptr noundef %1) #0 {
  %3 = alloca ptr, align 8
  %4 = alloca ptr, align 8
  %5 = alloca ptr, align 8
  %6 = alloca i32, align 4
  %7 = alloca i32, align 4
  store ptr %0, ptr %3, align 8
  store ptr %1, ptr %4, align 8
  call void @llvm.lifetime.start.p0(i64 8, ptr %5) #8
  call void @llvm.lifetime.start.p0(i64 4, ptr %6) #8
  %8 = load volatile i32, ptr @cancel_pressed, align 4
  %9 = icmp ne i32 %8, 0
  br i1 %9, label %10, label %11

10:                                               ; preds = %2
  store i32 1, ptr %7, align 4
  br label %110

11:                                               ; preds = %2
  %12 = load ptr, ptr %3, align 8
  %13 = getelementptr inbounds nuw %struct.printTableContent, ptr %12, i32 0, i32 0
  %14 = load ptr, ptr %13, align 8
  %15 = getelementptr inbounds nuw %struct.printTableOpt, ptr %14, i32 0, i32 8
  %16 = load i8, ptr %15, align 1, !range !4, !noundef !5
  %17 = trunc i8 %16 to i1
  br i1 %17, label %18, label %65

18:                                               ; preds = %11
  %19 = load ptr, ptr %3, align 8
  %20 = getelementptr inbounds nuw %struct.printTableContent, ptr %19, i32 0, i32 0
  %21 = load ptr, ptr %20, align 8
  %22 = getelementptr inbounds nuw %struct.printTableOpt, ptr %21, i32 0, i32 7
  %23 = load i8, ptr %22, align 8, !range !4, !noundef !5
  %24 = trunc i8 %23 to i1
  br i1 %24, label %65, label %25

25:                                               ; preds = %18
  %26 = load ptr, ptr %3, align 8
  %27 = getelementptr inbounds nuw %struct.printTableContent, ptr %26, i32 0, i32 4
  %28 = load ptr, ptr %27, align 8
  store ptr %28, ptr %5, align 8
  br label %29

29:                                               ; preds = %59, %25
  %30 = load ptr, ptr %5, align 8
  %31 = load ptr, ptr %30, align 8
  %32 = icmp ne ptr %31, null
  br i1 %32, label %33, label %62

33:                                               ; preds = %29
  %34 = load ptr, ptr %5, align 8
  %35 = load ptr, ptr %3, align 8
  %36 = getelementptr inbounds nuw %struct.printTableContent, ptr %35, i32 0, i32 4
  %37 = load ptr, ptr %36, align 8
  %38 = icmp ne ptr %34, %37
  br i1 %38, label %39, label %49

39:                                               ; preds = %33
  %40 = load ptr, ptr %3, align 8
  %41 = getelementptr inbounds nuw %struct.printTableContent, ptr %40, i32 0, i32 0
  %42 = load ptr, ptr %41, align 8
  %43 = getelementptr inbounds nuw %struct.printTableOpt, ptr %42, i32 0, i32 15
  %44 = getelementptr inbounds [2 x i8], ptr %43, i64 0, i64 0
  %45 = load i8, ptr %44, align 8
  %46 = sext i8 %45 to i32
  %47 = load ptr, ptr %4, align 8
  %48 = call i32 @fputc(i32 noundef %46, ptr noundef %47)
  br label %49

49:                                               ; preds = %39, %33
  %50 = load ptr, ptr %5, align 8
  %51 = load ptr, ptr %50, align 8
  %52 = load ptr, ptr %4, align 8
  %53 = load ptr, ptr %3, align 8
  %54 = getelementptr inbounds nuw %struct.printTableContent, ptr %53, i32 0, i32 0
  %55 = load ptr, ptr %54, align 8
  %56 = getelementptr inbounds nuw %struct.printTableOpt, ptr %55, i32 0, i32 15
  %57 = getelementptr inbounds [2 x i8], ptr %56, i64 0, i64 0
  %58 = load i8, ptr %57, align 8
  call void @csv_print_field(ptr noundef %51, ptr noundef %52, i8 noundef signext %58)
  br label %59

59:                                               ; preds = %49
  %60 = load ptr, ptr %5, align 8
  %61 = getelementptr inbounds nuw ptr, ptr %60, i32 1
  store ptr %61, ptr %5, align 8
  br label %29, !llvm.loop !41

62:                                               ; preds = %29
  %63 = load ptr, ptr %4, align 8
  %64 = call i32 @fputc(i32 noundef 10, ptr noundef %63)
  br label %65

65:                                               ; preds = %62, %18, %11
  store i32 0, ptr %6, align 4
  %66 = load ptr, ptr %3, align 8
  %67 = getelementptr inbounds nuw %struct.printTableContent, ptr %66, i32 0, i32 6
  %68 = load ptr, ptr %67, align 8
  store ptr %68, ptr %5, align 8
  br label %69

69:                                               ; preds = %104, %65
  %70 = load ptr, ptr %5, align 8
  %71 = load ptr, ptr %70, align 8
  %72 = icmp ne ptr %71, null
  br i1 %72, label %73, label %109

73:                                               ; preds = %69
  %74 = load ptr, ptr %5, align 8
  %75 = load ptr, ptr %74, align 8
  %76 = load ptr, ptr %4, align 8
  %77 = load ptr, ptr %3, align 8
  %78 = getelementptr inbounds nuw %struct.printTableContent, ptr %77, i32 0, i32 0
  %79 = load ptr, ptr %78, align 8
  %80 = getelementptr inbounds nuw %struct.printTableOpt, ptr %79, i32 0, i32 15
  %81 = getelementptr inbounds [2 x i8], ptr %80, i64 0, i64 0
  %82 = load i8, ptr %81, align 8
  call void @csv_print_field(ptr noundef %75, ptr noundef %76, i8 noundef signext %82)
  %83 = load i32, ptr %6, align 4
  %84 = add i32 %83, 1
  %85 = load ptr, ptr %3, align 8
  %86 = getelementptr inbounds nuw %struct.printTableContent, ptr %85, i32 0, i32 2
  %87 = load i32, ptr %86, align 8
  %88 = srem i32 %84, %87
  %89 = icmp ne i32 %88, 0
  br i1 %89, label %90, label %100

90:                                               ; preds = %73
  %91 = load ptr, ptr %3, align 8
  %92 = getelementptr inbounds nuw %struct.printTableContent, ptr %91, i32 0, i32 0
  %93 = load ptr, ptr %92, align 8
  %94 = getelementptr inbounds nuw %struct.printTableOpt, ptr %93, i32 0, i32 15
  %95 = getelementptr inbounds [2 x i8], ptr %94, i64 0, i64 0
  %96 = load i8, ptr %95, align 8
  %97 = sext i8 %96 to i32
  %98 = load ptr, ptr %4, align 8
  %99 = call i32 @fputc(i32 noundef %97, ptr noundef %98)
  br label %103

100:                                              ; preds = %73
  %101 = load ptr, ptr %4, align 8
  %102 = call i32 @fputc(i32 noundef 10, ptr noundef %101)
  br label %103

103:                                              ; preds = %100, %90
  br label %104

104:                                              ; preds = %103
  %105 = load i32, ptr %6, align 4
  %106 = add i32 %105, 1
  store i32 %106, ptr %6, align 4
  %107 = load ptr, ptr %5, align 8
  %108 = getelementptr inbounds nuw ptr, ptr %107, i32 1
  store ptr %108, ptr %5, align 8
  br label %69, !llvm.loop !42

109:                                              ; preds = %69
  store i32 0, ptr %7, align 4
  br label %110

110:                                              ; preds = %109, %10
  call void @llvm.lifetime.end.p0(i64 4, ptr %6) #8
  call void @llvm.lifetime.end.p0(i64 8, ptr %5) #8
  %111 = load i32, ptr %7, align 4
  switch i32 %111, label %113 [
    i32 0, label %112
    i32 1, label %112
  ]

112:                                              ; preds = %110, %110
  ret void

113:                                              ; preds = %110
  unreachable
}