; Function Attrs: nofree nounwind uwtable
define internal fastcc void @print_csv_text(ptr noundef readonly captures(none) %0, ptr noundef captures(none) %1) unnamed_addr #0 {
  %3 = load volatile i32, ptr @cancel_pressed, align 4
  %.not = icmp eq i32 %3, 0
  br i1 %.not, label %4, label %.loopexit

4:                                                ; preds = %2
  %5 = load ptr, ptr %0, align 8
  %6 = getelementptr inbounds nuw i8, ptr %5, i64 25
  %7 = load i8, ptr %6, align 1, !range !6, !noundef !7
  %8 = trunc nuw i8 %7 to i1
  br i1 %8, label %9, label %32

9:                                                ; preds = %4
  %10 = getelementptr inbounds nuw i8, ptr %5, i64 24
  %11 = load i8, ptr %10, align 8, !range !6, !noundef !7
  %12 = trunc nuw i8 %11 to i1
  br i1 %12, label %32, label %13

13:                                               ; preds = %9
  %14 = getelementptr inbounds nuw i8, ptr %0, i64 24
  %15 = load ptr, ptr %14, align 8
  %16 = load ptr, ptr %15, align 8
  %.not2630 = icmp eq ptr %16, null
  br i1 %.not2630, label %._crit_edge, label %.lr.ph

.lr.ph:                                           ; preds = %13, %24
  %17 = phi ptr [ %30, %24 ], [ %16, %13 ]
  %.02431 = phi ptr [ %29, %24 ], [ %15, %13 ]
  %18 = load ptr, ptr %14, align 8
  %.not27 = icmp eq ptr %.02431, %18
  %.pre38 = load ptr, ptr %0, align 8
  br i1 %.not27, label %24, label %19

19:                                               ; preds = %.lr.ph
  %20 = getelementptr inbounds nuw i8, ptr %.pre38, i64 80
  %21 = load i8, ptr %20, align 8
  %22 = sext i8 %21 to i32
  %23 = tail call i32 @fputc(i32 noundef %22, ptr noundef %1)
  %.pre = load ptr, ptr %.02431, align 8
  %.pre37 = load ptr, ptr %0, align 8
  br label %24

24:                                               ; preds = %19, %.lr.ph
  %25 = phi ptr [ %.pre37, %19 ], [ %.pre38, %.lr.ph ]
  %26 = phi ptr [ %.pre, %19 ], [ %17, %.lr.ph ]
  %27 = getelementptr inbounds nuw i8, ptr %25, i64 80
  %28 = load i8, ptr %27, align 8
  tail call fastcc void @csv_print_field(ptr noundef %26, ptr noundef %1, i8 noundef signext %28)
  %29 = getelementptr inbounds nuw i8, ptr %.02431, i64 8
  %30 = load ptr, ptr %29, align 8
  %.not26 = icmp eq ptr %30, null
  br i1 %.not26, label %._crit_edge, label %.lr.ph, !llvm.loop !40

._crit_edge:                                      ; preds = %24, %13
  %31 = tail call i32 @fputc(i32 noundef 10, ptr noundef %1)
  br label %32

32:                                               ; preds = %._crit_edge, %9, %4
  %33 = getelementptr inbounds nuw i8, ptr %0, i64 40
  %34 = load ptr, ptr %33, align 8
  %35 = load ptr, ptr %34, align 8
  %.not2832 = icmp eq ptr %35, null
  br i1 %.not2832, label %.loopexit, label %.lr.ph36

.lr.ph36:                                         ; preds = %32
  %36 = getelementptr inbounds nuw i8, ptr %0, i64 16
  br label %37

37:                                               ; preds = %.lr.ph36, %50
  %38 = phi ptr [ %35, %.lr.ph36 ], [ %53, %50 ]
  %.034 = phi i32 [ 0, %.lr.ph36 ], [ %42, %50 ]
  %.133 = phi ptr [ %34, %.lr.ph36 ], [ %52, %50 ]
  %39 = load ptr, ptr %0, align 8
  %40 = getelementptr inbounds nuw i8, ptr %39, i64 80
  %41 = load i8, ptr %40, align 8
  tail call fastcc void @csv_print_field(ptr noundef nonnull %38, ptr noundef %1, i8 noundef signext %41)
  %42 = add i32 %.034, 1
  %43 = load i32, ptr %36, align 8
  %44 = srem i32 %42, %43
  %.not29 = icmp eq i32 %44, 0
  br i1 %.not29, label %50, label %45

45:                                               ; preds = %37
  %46 = load ptr, ptr %0, align 8
  %47 = getelementptr inbounds nuw i8, ptr %46, i64 80
  %48 = load i8, ptr %47, align 8
  %49 = sext i8 %48 to i32
  br label %50

50:                                               ; preds = %37, %45
  %.sink = phi i32 [ %49, %45 ], [ 10, %37 ]
  %51 = tail call i32 @fputc(i32 noundef %.sink, ptr noundef %1)
  %52 = getelementptr inbounds nuw i8, ptr %.133, i64 8
  %53 = load ptr, ptr %52, align 8
  %.not28 = icmp eq ptr %53, null
  br i1 %.not28, label %.loopexit, label %37, !llvm.loop !41

.loopexit:                                        ; preds = %50, %32, %2
  ret void
}